
sort:     file format elf32-littlearm


Disassembly of section .init:

0001029c <_init>:
   1029c:	e92d4008 	push	{r3, lr}
   102a0:	eb00001d 	bl	1031c <call_weak_fn>
   102a4:	e8bd8008 	pop	{r3, pc}

Disassembly of section .plt:

000102a8 <.plt>:
   102a8:	e52de004 	push	{lr}		; (str lr, [sp, #-4]!)
   102ac:	e59fe004 	ldr	lr, [pc, #4]	; 102b8 <.plt+0x10>
   102b0:	e08fe00e 	add	lr, pc, lr
   102b4:	e5bef008 	ldr	pc, [lr, #8]!
   102b8:	00010d48 	andeq	r0, r1, r8, asr #26

000102bc <__libc_start_main@plt>:
   102bc:	e28fc600 	add	ip, pc, #0, 12
   102c0:	e28cca10 	add	ip, ip, #16, 20	; 0x10000
   102c4:	e5bcfd48 	ldr	pc, [ip, #3400]!	; 0xd48

000102c8 <__gmon_start__@plt>:
   102c8:	e28fc600 	add	ip, pc, #0, 12
   102cc:	e28cca10 	add	ip, ip, #16, 20	; 0x10000
   102d0:	e5bcfd40 	ldr	pc, [ip, #3392]!	; 0xd40

000102d4 <abort@plt>:
   102d4:	e28fc600 	add	ip, pc, #0, 12
   102d8:	e28cca10 	add	ip, ip, #16, 20	; 0x10000
   102dc:	e5bcfd38 	ldr	pc, [ip, #3384]!	; 0xd38

Disassembly of section .text:

000102e0 <_start>:
   102e0:	e3a0b000 	mov	fp, #0
   102e4:	e3a0e000 	mov	lr, #0
   102e8:	e49d1004 	pop	{r1}		; (ldr r1, [sp], #4)
   102ec:	e1a0200d 	mov	r2, sp
   102f0:	e52d2004 	push	{r2}		; (str r2, [sp, #-4]!)
   102f4:	e52d0004 	push	{r0}		; (str r0, [sp, #-4]!)
   102f8:	e59fc010 	ldr	ip, [pc, #16]	; 10310 <_start+0x30>
   102fc:	e52dc004 	push	{ip}		; (str ip, [sp, #-4]!)
   10300:	e59f000c 	ldr	r0, [pc, #12]	; 10314 <_start+0x34>
   10304:	e59f300c 	ldr	r3, [pc, #12]	; 10318 <_start+0x38>
   10308:	ebffffeb 	bl	102bc <__libc_start_main@plt>
   1030c:	ebfffff0 	bl	102d4 <abort@plt>
   10310:	000104bc 			; <UNDEFINED> instruction: 0x000104bc
   10314:	00010408 	andeq	r0, r1, r8, lsl #8
   10318:	0001045c 	andeq	r0, r1, ip, asr r4

0001031c <call_weak_fn>:
   1031c:	e59f3014 	ldr	r3, [pc, #20]	; 10338 <call_weak_fn+0x1c>
   10320:	e59f2014 	ldr	r2, [pc, #20]	; 1033c <call_weak_fn+0x20>
   10324:	e08f3003 	add	r3, pc, r3
   10328:	e7932002 	ldr	r2, [r3, r2]
   1032c:	e3520000 	cmp	r2, #0
   10330:	012fff1e 	bxeq	lr
   10334:	eaffffe3 	b	102c8 <__gmon_start__@plt>
   10338:	00010cd4 	ldrdeq	r0, [r1], -r4
   1033c:	00000018 	andeq	r0, r0, r8, lsl r0

00010340 <deregister_tm_clones>:
   10340:	e59f301c 	ldr	r3, [pc, #28]	; 10364 <deregister_tm_clones+0x24>
   10344:	e59f001c 	ldr	r0, [pc, #28]	; 10368 <deregister_tm_clones+0x28>
   10348:	e0433000 	sub	r3, r3, r0
   1034c:	e3530006 	cmp	r3, #6
   10350:	912fff1e 	bxls	lr
   10354:	e59f3010 	ldr	r3, [pc, #16]	; 1036c <deregister_tm_clones+0x2c>
   10358:	e3530000 	cmp	r3, #0
   1035c:	012fff1e 	bxeq	lr
   10360:	e12fff13 	bx	r3
   10364:	0002102b 	andeq	r1, r2, fp, lsr #32
   10368:	00021028 	andeq	r1, r2, r8, lsr #32
   1036c:	00000000 	andeq	r0, r0, r0

00010370 <register_tm_clones>:
   10370:	e59f1024 	ldr	r1, [pc, #36]	; 1039c <register_tm_clones+0x2c>
   10374:	e59f0024 	ldr	r0, [pc, #36]	; 103a0 <register_tm_clones+0x30>
   10378:	e0411000 	sub	r1, r1, r0
   1037c:	e1a01141 	asr	r1, r1, #2
   10380:	e0811fa1 	add	r1, r1, r1, lsr #31
   10384:	e1b010c1 	asrs	r1, r1, #1
   10388:	012fff1e 	bxeq	lr
   1038c:	e59f3010 	ldr	r3, [pc, #16]	; 103a4 <register_tm_clones+0x34>
   10390:	e3530000 	cmp	r3, #0
   10394:	012fff1e 	bxeq	lr
   10398:	e12fff13 	bx	r3
   1039c:	00021028 	andeq	r1, r2, r8, lsr #32
   103a0:	00021028 	andeq	r1, r2, r8, lsr #32
   103a4:	00000000 	andeq	r0, r0, r0

000103a8 <__do_global_dtors_aux>:
   103a8:	e92d4010 	push	{r4, lr}
   103ac:	e59f4018 	ldr	r4, [pc, #24]	; 103cc <__do_global_dtors_aux+0x24>
   103b0:	e5d43000 	ldrb	r3, [r4]
   103b4:	e3530000 	cmp	r3, #0
   103b8:	18bd8010 	popne	{r4, pc}
   103bc:	ebffffdf 	bl	10340 <deregister_tm_clones>
   103c0:	e3a03001 	mov	r3, #1
   103c4:	e5c43000 	strb	r3, [r4]
   103c8:	e8bd8010 	pop	{r4, pc}
   103cc:	00021027 	andeq	r1, r2, r7, lsr #32

000103d0 <frame_dummy>:
   103d0:	e59f0028 	ldr	r0, [pc, #40]	; 10400 <frame_dummy+0x30>
   103d4:	e5903000 	ldr	r3, [r0]
   103d8:	e3530000 	cmp	r3, #0
   103dc:	1a000000 	bne	103e4 <frame_dummy+0x14>
   103e0:	eaffffe2 	b	10370 <register_tm_clones>
   103e4:	e59f3018 	ldr	r3, [pc, #24]	; 10404 <frame_dummy+0x34>
   103e8:	e3530000 	cmp	r3, #0
   103ec:	0afffffb 	beq	103e0 <frame_dummy+0x10>
   103f0:	e92d4010 	push	{r4, lr}
   103f4:	e12fff33 	blx	r3
   103f8:	e8bd4010 	pop	{r4, lr}
   103fc:	eaffffdb 	b	10370 <register_tm_clones>
   10400:	00020f14 	andeq	r0, r2, r4, lsl pc
   10404:	00000000 	andeq	r0, r0, r0

00010408 <main>:
   10408:	e59f3048 	ldr	r3, [pc, #72]	; 10458 <done+0x8>
   1040c:	e3a04000 	mov	r4, #0
   10410:	e3a05000 	mov	r5, #0

00010414 <iteration>:
   10414:	e354000c 	cmp	r4, #12
   10418:	aa00000c 	bge	10450 <done>
   1041c:	e2844001 	add	r4, r4, #1

00010420 <position>:
   10420:	e355000b 	cmp	r5, #11
   10424:	aa000008 	bge	1044c <position_done>
   10428:	e2855001 	add	r5, r5, #1
   1042c:	e2856001 	add	r6, r5, #1
   10430:	e19370d5 	ldrsb	r7, [r3, r5]
   10434:	e19380d6 	ldrsb	r8, [r3, r6]
   10438:	e1570008 	cmp	r7, r8
   1043c:	dafffff7 	ble	10420 <position>
   10440:	e7838005 	str	r8, [r3, r5]
   10444:	e7837006 	str	r7, [r3, r6]
   10448:	eafffff4 	b	10420 <position>

0001044c <position_done>:
   1044c:	eafffff0 	b	10414 <iteration>

00010450 <done>:
   10450:	e1a00000 	nop			; (mov r0, r0)
   10454:	e12fff1e 	bx	lr
   10458:	00021024 	andeq	r1, r2, r4, lsr #32

0001045c <__libc_csu_init>:
   1045c:	e92d47f0 	push	{r4, r5, r6, r7, r8, r9, sl, lr}
   10460:	e1a07000 	mov	r7, r0
   10464:	e59f6048 	ldr	r6, [pc, #72]	; 104b4 <__libc_csu_init+0x58>
   10468:	e59f5048 	ldr	r5, [pc, #72]	; 104b8 <__libc_csu_init+0x5c>
   1046c:	e08f6006 	add	r6, pc, r6
   10470:	e08f5005 	add	r5, pc, r5
   10474:	e0466005 	sub	r6, r6, r5
   10478:	e1a08001 	mov	r8, r1
   1047c:	e1a09002 	mov	r9, r2
   10480:	ebffff85 	bl	1029c <_init>
   10484:	e1b06146 	asrs	r6, r6, #2
   10488:	08bd87f0 	popeq	{r4, r5, r6, r7, r8, r9, sl, pc}
   1048c:	e3a04000 	mov	r4, #0
   10490:	e2844001 	add	r4, r4, #1
   10494:	e4953004 	ldr	r3, [r5], #4
   10498:	e1a02009 	mov	r2, r9
   1049c:	e1a01008 	mov	r1, r8
   104a0:	e1a00007 	mov	r0, r7
   104a4:	e12fff33 	blx	r3
   104a8:	e1560004 	cmp	r6, r4
   104ac:	1afffff7 	bne	10490 <__libc_csu_init+0x34>
   104b0:	e8bd87f0 	pop	{r4, r5, r6, r7, r8, r9, sl, pc}
   104b4:	00010a9c 	muleq	r1, ip, sl
   104b8:	00010a94 	muleq	r1, r4, sl

000104bc <__libc_csu_fini>:
   104bc:	e12fff1e 	bx	lr

Disassembly of section .fini:

000104c0 <_fini>:
   104c0:	e92d4008 	push	{r3, lr}
   104c4:	e8bd8008 	pop	{r3, pc}
